; Function Attrs: mustprogress uwtable
define noundef i64 @_ZNK8facebook5velox9RowVector11hashValueAtEi(ptr noundef nonnull align 8 dereferenceable(138) %this, i32 noundef %index) unnamed_addr #0 align 2 {
entry:
  %vtable = load ptr, ptr %this, align 8
  %vfn = getelementptr inbounds i8, ptr %vtable, i64 32
  %0 = load ptr, ptr %vfn, align 8
  %call = tail call noundef zeroext i1 %0(ptr noundef nonnull align 8 dereferenceable(99) %this, i32 noundef %index)
  br i1 %call, label %return, label %for.cond.preheader

for.cond.preheader:                               ; preds = %entry
  %childrenSize_.i = getelementptr inbounds i8, ptr %this, i64 104
  %1 = load i64, ptr %childrenSize_.i, align 8
  %cmp7.not = icmp eq i64 %1, 0
  br i1 %cmp7.not, label %return, label %for.body.lr.ph

for.body.lr.ph:                                   ; preds = %for.cond.preheader
  %children_ = getelementptr inbounds i8, ptr %this, i64 112
  br label %for.body

for.body:                                         ; preds = %for.body.lr.ph, %for.inc
  %indvars.iv = phi i64 [ 0, %for.body.lr.ph ], [ %indvars.iv.next, %for.inc ]
  %hash.010 = phi i64 [ 1, %for.body.lr.ph ], [ %hash.1, %for.inc ]
  %isFirst.08 = phi i8 [ 1, %for.body.lr.ph ], [ %isFirst.1, %for.inc ]
  %2 = load ptr, ptr %children_, align 8
  %add.ptr.i = getelementptr inbounds %"class.std::shared_ptr.3", ptr %2, i64 %indvars.iv
  %3 = load ptr, ptr %add.ptr.i, align 8
  %cmp.i.not = icmp eq ptr %3, null
  br i1 %cmp.i.not, label %for.inc, label %if.then6

if.then6:                                         ; preds = %for.body
  %vtable8 = load ptr, ptr %3, align 8
  %vfn9 = getelementptr inbounds i8, ptr %vtable8, i64 104
  %4 = load ptr, ptr %vfn9, align 8
  %call10 = tail call noundef i64 %4(ptr noundef nonnull align 8 dereferenceable(99) %3, i32 noundef %index)
  %5 = and i8 %isFirst.08, 1
  %tobool.not = icmp eq i8 %5, 0
  br i1 %tobool.not, label %cond.false, label %for.inc

cond.false:                                       ; preds = %if.then6
  %xor.i = xor i64 %call10, %hash.010
  %mul.i = mul i64 %xor.i, -7070675565921424023
  %shr.i = lshr i64 %mul.i, 47
  %6 = xor i64 %hash.010, %shr.i
  %xor2.i = xor i64 %6, %mul.i
  %mul3.i = mul i64 %xor2.i, -7070675565921424023
  %shr4.i = lshr i64 %mul3.i, 47
  %xor5.i = xor i64 %shr4.i, %mul3.i
  %mul6.i = mul i64 %xor5.i, -7070675565921424023
  br label %for.inc

for.inc:                                          ; preds = %cond.false, %if.then6, %for.body
  %isFirst.1 = phi i8 [ %isFirst.08, %for.body ], [ 0, %if.then6 ], [ 0, %cond.false ]
  %hash.1 = phi i64 [ %hash.010, %for.body ], [ %call10, %if.then6 ], [ %mul6.i, %cond.false ]
  %indvars.iv.next = add nuw i64 %indvars.iv, 1
  %7 = load i64, ptr %childrenSize_.i, align 8
  %cmp = icmp ugt i64 %7, %indvars.iv.next
  br i1 %cmp, label %for.body, label %return, !llvm.loop !55

return:                                           ; preds = %for.inc, %for.cond.preheader, %entry
  %retval.0 = phi i64 [ 1, %entry ], [ 1, %for.cond.preheader ], [ %hash.1, %for.inc ]
  ret i64 %retval.0
}